target datalayout = "e-m:e-p270:32:32-p271:32:32-p272:64:64-i64:64-i128:128-f80:128-n8:16:32:64-S128"
target triple = "x86_64-pc-linux-gnu"

%struct._lv_vector_draw_dsc_t = type { %struct._lv_vector_fill_dsc_t, %struct._lv_vector_stroke_dsc_t, %struct._lv_matrix_t, i32, %struct.lv_area_t }
%struct._lv_vector_fill_dsc_t = type { i32, %struct.lv_color32_t, i8, i32, %struct._lv_draw_image_dsc_t, %struct._lv_vector_gradient_t, %struct._lv_matrix_t }
%struct.lv_color32_t = type { i8, i8, i8, i8 }
%struct._lv_draw_image_dsc_t = type { %struct.lv_draw_dsc_base_t, ptr, %struct.lv_image_header_t, i32, i32, i32, i32, i32, %struct.lv_point_t, %struct.lv_color_t, i8, i8, i8, ptr, %struct.lv_area_t, i32, ptr }
%struct.lv_draw_dsc_base_t = type { ptr, i32, i32, i32, ptr, i64, ptr }
%struct.lv_image_header_t = type <{ i64, i32 }>
%struct.lv_point_t = type { i32, i32 }
%struct.lv_color_t = type { i8, i8, i8 }
%struct._lv_vector_gradient_t = type { i32, [2 x %struct.lv_gradient_stop_t], i16, float, float, float, float, float, float, float, i32 }
%struct.lv_gradient_stop_t = type { %struct.lv_color_t, i8, i8 }
%struct._lv_vector_stroke_dsc_t = type { i32, %struct.lv_color32_t, i8, float, %struct._lv_array_t, i32, i32, i16, %struct._lv_vector_gradient_t, %struct._lv_matrix_t }
%struct._lv_array_t = type { ptr, i32, i32, i32, i8 }
%struct._lv_matrix_t = type { [3 x [3 x float]] }
%struct.lv_area_t = type { i32, i32, i32, i32 }
%struct._lv_svg_render_obj = type { ptr, i32, ptr, %struct._lv_vector_draw_dsc_t, %struct._lv_matrix_t, ptr, ptr, ptr, ptr, ptr, ptr, ptr, ptr, ptr }
%struct._lv_vector_dsc_t = type { ptr, %struct._lv_vector_draw_dsc_t, %struct._lv_draw_vector_task_dsc_t }
%struct._lv_draw_vector_task_dsc_t = type { %struct.lv_draw_dsc_base_t, ptr }
%struct.lv_svg_render_use_t = type { %struct._lv_svg_render_obj, float, float, ptr }

; Function Attrs: nounwind uwtable
define internal void @_copy_draw_dsc(ptr noundef %0, ptr noundef %1) #0 {
  %3 = alloca ptr, align 8
  %4 = alloca ptr, align 8
  store ptr %0, ptr %3, align 8, !tbaa !3
  store ptr %1, ptr %4, align 8, !tbaa !3
  %5 = load ptr, ptr %3, align 8, !tbaa !3
  %6 = getelementptr inbounds nuw %struct._lv_vector_draw_dsc_t, ptr %5, i32 0, i32 0
  %7 = load ptr, ptr %4, align 8, !tbaa !3
  %8 = getelementptr inbounds nuw %struct._lv_vector_draw_dsc_t, ptr %7, i32 0, i32 0
  %9 = call ptr @lv_memcpy(ptr noundef %6, ptr noundef %8, i64 noundef 248)
  %10 = load ptr, ptr %4, align 8, !tbaa !3
  %11 = getelementptr inbounds nuw %struct._lv_vector_draw_dsc_t, ptr %10, i32 0, i32 1
  %12 = getelementptr inbounds nuw %struct._lv_vector_stroke_dsc_t, ptr %11, i32 0, i32 0
  %13 = load i32, ptr %12, align 8, !tbaa !237
  %14 = load ptr, ptr %3, align 8, !tbaa !3
  %15 = getelementptr inbounds nuw %struct._lv_vector_draw_dsc_t, ptr %14, i32 0, i32 1
  %16 = getelementptr inbounds nuw %struct._lv_vector_stroke_dsc_t, ptr %15, i32 0, i32 0
  store i32 %13, ptr %16, align 8, !tbaa !237
  %17 = load ptr, ptr %3, align 8, !tbaa !3
  %18 = getelementptr inbounds nuw %struct._lv_vector_draw_dsc_t, ptr %17, i32 0, i32 1
  %19 = getelementptr inbounds nuw %struct._lv_vector_stroke_dsc_t, ptr %18, i32 0, i32 1
  %20 = load ptr, ptr %4, align 8, !tbaa !3
  %21 = getelementptr inbounds nuw %struct._lv_vector_draw_dsc_t, ptr %20, i32 0, i32 1
  %22 = getelementptr inbounds nuw %struct._lv_vector_stroke_dsc_t, ptr %21, i32 0, i32 1
  call void @llvm.memcpy.p0.p0.i64(ptr align 4 %19, ptr align 4 %22, i64 4, i1 false), !tbaa.struct !78
  %23 = load ptr, ptr %4, align 8, !tbaa !3
  %24 = getelementptr inbounds nuw %struct._lv_vector_draw_dsc_t, ptr %23, i32 0, i32 1
  %25 = getelementptr inbounds nuw %struct._lv_vector_stroke_dsc_t, ptr %24, i32 0, i32 2
  %26 = load i8, ptr %25, align 8, !tbaa !238
  %27 = load ptr, ptr %3, align 8, !tbaa !3
  %28 = getelementptr inbounds nuw %struct._lv_vector_draw_dsc_t, ptr %27, i32 0, i32 1
  %29 = getelementptr inbounds nuw %struct._lv_vector_stroke_dsc_t, ptr %28, i32 0, i32 2
  store i8 %26, ptr %29, align 8, !tbaa !238
  %30 = load ptr, ptr %4, align 8, !tbaa !3
  %31 = getelementptr inbounds nuw %struct._lv_vector_draw_dsc_t, ptr %30, i32 0, i32 1
  %32 = getelementptr inbounds nuw %struct._lv_vector_stroke_dsc_t, ptr %31, i32 0, i32 3
  %33 = load float, ptr %32, align 4, !tbaa !265
  %34 = load ptr, ptr %3, align 8, !tbaa !3
  %35 = getelementptr inbounds nuw %struct._lv_vector_draw_dsc_t, ptr %34, i32 0, i32 1
  %36 = getelementptr inbounds nuw %struct._lv_vector_stroke_dsc_t, ptr %35, i32 0, i32 3
  store float %33, ptr %36, align 4, !tbaa !265
  %37 = load ptr, ptr %4, align 8, !tbaa !3
  %38 = getelementptr inbounds nuw %struct._lv_vector_draw_dsc_t, ptr %37, i32 0, i32 1
  %39 = getelementptr inbounds nuw %struct._lv_vector_stroke_dsc_t, ptr %38, i32 0, i32 5
  %40 = load i32, ptr %39, align 8, !tbaa !266
  %41 = load ptr, ptr %3, align 8, !tbaa !3
  %42 = getelementptr inbounds nuw %struct._lv_vector_draw_dsc_t, ptr %41, i32 0, i32 1
  %43 = getelementptr inbounds nuw %struct._lv_vector_stroke_dsc_t, ptr %42, i32 0, i32 5
  store i32 %40, ptr %43, align 8, !tbaa !266
  %44 = load ptr, ptr %4, align 8, !tbaa !3
  %45 = getelementptr inbounds nuw %struct._lv_vector_draw_dsc_t, ptr %44, i32 0, i32 1
  %46 = getelementptr inbounds nuw %struct._lv_vector_stroke_dsc_t, ptr %45, i32 0, i32 6
  %47 = load i32, ptr %46, align 4, !tbaa !267
  %48 = load ptr, ptr %3, align 8, !tbaa !3
  %49 = getelementptr inbounds nuw %struct._lv_vector_draw_dsc_t, ptr %48, i32 0, i32 1
  %50 = getelementptr inbounds nuw %struct._lv_vector_stroke_dsc_t, ptr %49, i32 0, i32 6
  store i32 %47, ptr %50, align 4, !tbaa !267
  %51 = load ptr, ptr %4, align 8, !tbaa !3
  %52 = getelementptr inbounds nuw %struct._lv_vector_draw_dsc_t, ptr %51, i32 0, i32 1
  %53 = getelementptr inbounds nuw %struct._lv_vector_stroke_dsc_t, ptr %52, i32 0, i32 7
  %54 = load i16, ptr %53, align 8, !tbaa !268
  %55 = load ptr, ptr %3, align 8, !tbaa !3
  %56 = getelementptr inbounds nuw %struct._lv_vector_draw_dsc_t, ptr %55, i32 0, i32 1
  %57 = getelementptr inbounds nuw %struct._lv_vector_stroke_dsc_t, ptr %56, i32 0, i32 7
  store i16 %54, ptr %57, align 8, !tbaa !268
  %58 = load ptr, ptr %3, align 8, !tbaa !3
  %59 = getelementptr inbounds nuw %struct._lv_vector_draw_dsc_t, ptr %58, i32 0, i32 1
  %60 = getelementptr inbounds nuw %struct._lv_vector_stroke_dsc_t, ptr %59, i32 0, i32 4
  %61 = load ptr, ptr %4, align 8, !tbaa !3
  %62 = getelementptr inbounds nuw %struct._lv_vector_draw_dsc_t, ptr %61, i32 0, i32 1
  %63 = getelementptr inbounds nuw %struct._lv_vector_stroke_dsc_t, ptr %62, i32 0, i32 4
  call void @lv_array_copy(ptr noundef %60, ptr noundef %63)
  %64 = load ptr, ptr %3, align 8, !tbaa !3
  %65 = getelementptr inbounds nuw %struct._lv_vector_draw_dsc_t, ptr %64, i32 0, i32 1
  %66 = getelementptr inbounds nuw %struct._lv_vector_stroke_dsc_t, ptr %65, i32 0, i32 8
  %67 = load ptr, ptr %4, align 8, !tbaa !3
  %68 = getelementptr inbounds nuw %struct._lv_vector_draw_dsc_t, ptr %67, i32 0, i32 1
  %69 = getelementptr inbounds nuw %struct._lv_vector_stroke_dsc_t, ptr %68, i32 0, i32 8
  %70 = call ptr @lv_memcpy(ptr noundef %66, ptr noundef %69, i64 noundef 48)
  %71 = load ptr, ptr %3, align 8, !tbaa !3
  %72 = getelementptr inbounds nuw %struct._lv_vector_draw_dsc_t, ptr %71, i32 0, i32 1
  %73 = getelementptr inbounds nuw %struct._lv_vector_stroke_dsc_t, ptr %72, i32 0, i32 9
  %74 = load ptr, ptr %4, align 8, !tbaa !3
  %75 = getelementptr inbounds nuw %struct._lv_vector_draw_dsc_t, ptr %74, i32 0, i32 1
  %76 = getelementptr inbounds nuw %struct._lv_vector_stroke_dsc_t, ptr %75, i32 0, i32 9
  %77 = call ptr @lv_memcpy(ptr noundef %73, ptr noundef %76, i64 noundef 36)
  %78 = load ptr, ptr %4, align 8, !tbaa !3
  %79 = getelementptr inbounds nuw %struct._lv_vector_draw_dsc_t, ptr %78, i32 0, i32 3
  %80 = load i32, ptr %79, align 4, !tbaa !88
  %81 = load ptr, ptr %3, align 8, !tbaa !3
  %82 = getelementptr inbounds nuw %struct._lv_vector_draw_dsc_t, ptr %81, i32 0, i32 3
  store i32 %80, ptr %82, align 4, !tbaa !88
  ret void
}

; Function Attrs: nounwind uwtable
define internal void @_restore_matrix(ptr noundef %0, ptr noundef %1) #0 {
  %3 = alloca ptr, align 8
  %4 = alloca ptr, align 8
  store ptr %0, ptr %3, align 8, !tbaa !3
  store ptr %1, ptr %4, align 8, !tbaa !3
  %5 = load ptr, ptr %4, align 8, !tbaa !3
  %6 = getelementptr inbounds nuw %struct._lv_vector_dsc_t, ptr %5, i32 0, i32 1
  %7 = getelementptr inbounds nuw %struct._lv_vector_draw_dsc_t, ptr %6, i32 0, i32 2
  %8 = load ptr, ptr %3, align 8, !tbaa !3
  %9 = call ptr @lv_memcpy(ptr noundef %7, ptr noundef %8, i64 noundef 36)
  ret void
}

; Function Attrs: nounwind uwtable
define internal void @_prepare_render(ptr noundef %0, ptr noundef %1) #0 {
  %3 = alloca ptr, align 8
  %4 = alloca ptr, align 8
  store ptr %0, ptr %3, align 8, !tbaa !3
  store ptr %1, ptr %4, align 8, !tbaa !3
  %5 = load ptr, ptr %4, align 8, !tbaa !3
  %6 = getelementptr inbounds nuw %struct._lv_vector_dsc_t, ptr %5, i32 0, i32 1
  %7 = load ptr, ptr %3, align 8, !tbaa !3
  %8 = getelementptr inbounds nuw %struct._lv_svg_render_obj, ptr %7, i32 0, i32 3
  call void @_copy_draw_dsc(ptr noundef %6, ptr noundef %8)
  ret void
}

; Function Attrs: nounwind uwtable
define internal void @_setup_matrix(ptr noundef %0, ptr noundef %1, ptr noundef %2) #0 {
  %4 = alloca ptr, align 8
  %5 = alloca ptr, align 8
  %6 = alloca ptr, align 8
  store ptr %0, ptr %4, align 8, !tbaa !3
  store ptr %1, ptr %5, align 8, !tbaa !3
  store ptr %2, ptr %6, align 8, !tbaa !3
  %7 = load ptr, ptr %4, align 8, !tbaa !3
  %8 = load ptr, ptr %5, align 8, !tbaa !3
  %9 = getelementptr inbounds nuw %struct._lv_vector_dsc_t, ptr %8, i32 0, i32 1
  %10 = getelementptr inbounds nuw %struct._lv_vector_draw_dsc_t, ptr %9, i32 0, i32 2
  %11 = call ptr @lv_memcpy(ptr noundef %7, ptr noundef %10, i64 noundef 36)
  %12 = load ptr, ptr %5, align 8, !tbaa !3
  %13 = getelementptr inbounds nuw %struct._lv_vector_dsc_t, ptr %12, i32 0, i32 1
  %14 = getelementptr inbounds nuw %struct._lv_vector_draw_dsc_t, ptr %13, i32 0, i32 2
  %15 = load ptr, ptr %6, align 8, !tbaa !3
  %16 = getelementptr inbounds nuw %struct._lv_svg_render_obj, ptr %15, i32 0, i32 4
  call void @lv_matrix_multiply(ptr noundef %14, ptr noundef %16)
  ret void
}

; Function Attrs: nounwind uwtable
define internal void @_render_use(ptr noundef %0, ptr noundef %1, ptr noundef %2) #0 {
  %4 = alloca ptr, align 8
  %5 = alloca ptr, align 8
  %6 = alloca ptr, align 8
  %7 = alloca %struct._lv_matrix_t, align 4
  %8 = alloca ptr, align 8
  %9 = alloca %struct._lv_matrix_t, align 4
  %10 = alloca ptr, align 8
  store ptr %0, ptr %4, align 8, !tbaa !3
  store ptr %1, ptr %5, align 8, !tbaa !3
  store ptr %2, ptr %6, align 8, !tbaa !3
  call void @llvm.lifetime.start.p0(i64 36, ptr %7) #8
  %11 = load ptr, ptr %5, align 8, !tbaa !3
  %12 = load ptr, ptr %4, align 8, !tbaa !3
  call void @_setup_matrix(ptr noundef %7, ptr noundef %11, ptr noundef %12)
  call void @llvm.lifetime.start.p0(i64 8, ptr %8) #8
  %13 = load ptr, ptr %4, align 8, !tbaa !3
  store ptr %13, ptr %8, align 8, !tbaa !3
  call void @llvm.lifetime.start.p0(i64 36, ptr %9) #8
  call void @lv_matrix_identity(ptr noundef %9)
  %14 = load ptr, ptr %8, align 8, !tbaa !3
  %15 = getelementptr inbounds nuw %struct.lv_svg_render_use_t, ptr %14, i32 0, i32 1
  %16 = load float, ptr %15, align 8, !tbaa !229
  %17 = load ptr, ptr %8, align 8, !tbaa !3
  %18 = getelementptr inbounds nuw %struct.lv_svg_render_use_t, ptr %17, i32 0, i32 2
  %19 = load float, ptr %18, align 4, !tbaa !230
  call void @lv_matrix_translate(ptr noundef %9, float noundef %16, float noundef %19)
  call void @llvm.lifetime.start.p0(i64 8, ptr %10) #8
  %20 = load ptr, ptr %4, align 8, !tbaa !3
  %21 = getelementptr inbounds nuw %struct._lv_svg_render_obj, ptr %20, i32 0, i32 5
  %22 = load ptr, ptr %21, align 8, !tbaa !166
  store ptr %22, ptr %10, align 8, !tbaa !3
  br label %23

23:                                               ; preds = %57, %3
  %24 = load ptr, ptr %10, align 8, !tbaa !3
  %25 = icmp ne ptr %24, null
  br i1 %25, label %26, label %61

26:                                               ; preds = %23
  %27 = load ptr, ptr %10, align 8, !tbaa !3
  %28 = getelementptr inbounds nuw %struct._lv_svg_render_obj, ptr %27, i32 0, i32 2
  %29 = load ptr, ptr %28, align 8, !tbaa !71
  %30 = icmp ne ptr %29, null
  br i1 %30, label %31, label %57

31:                                               ; preds = %26
  %32 = load ptr, ptr %8, align 8, !tbaa !3
  %33 = getelementptr inbounds nuw %struct.lv_svg_render_use_t, ptr %32, i32 0, i32 3
  %34 = load ptr, ptr %33, align 8, !tbaa !231
  %35 = load ptr, ptr %10, align 8, !tbaa !3
  %36 = getelementptr inbounds nuw %struct._lv_svg_render_obj, ptr %35, i32 0, i32 2
  %37 = load ptr, ptr %36, align 8, !tbaa !71
  %38 = call i32 @strcmp(ptr noundef %34, ptr noundef %37) #9
  %39 = icmp eq i32 %38, 0
  br i1 %39, label %40, label %56

40:                                               ; preds = %31
  %41 = load ptr, ptr %10, align 8, !tbaa !3
  %42 = getelementptr inbounds nuw %struct._lv_svg_render_obj, ptr %41, i32 0, i32 10
  %43 = load ptr, ptr %42, align 8, !tbaa !75
  %44 = icmp ne ptr %43, null
  br i1 %44, label %45, label %55

45:                                               ; preds = %40
  %46 = load ptr, ptr %10, align 8, !tbaa !3
  %47 = load ptr, ptr %5, align 8, !tbaa !3
  call void @_prepare_render(ptr noundef %46, ptr noundef %47)
  %48 = load ptr, ptr %4, align 8, !tbaa !3
  %49 = load ptr, ptr %5, align 8, !tbaa !3
  call void @_special_render(ptr noundef %48, ptr noundef %49)
  %50 = load ptr, ptr %10, align 8, !tbaa !3
  %51 = getelementptr inbounds nuw %struct._lv_svg_render_obj, ptr %50, i32 0, i32 10
  %52 = load ptr, ptr %51, align 8, !tbaa !75
  %53 = load ptr, ptr %10, align 8, !tbaa !3
  %54 = load ptr, ptr %5, align 8, !tbaa !3
  call void %52(ptr noundef %53, ptr noundef %54, ptr noundef %9)
  br label %55

55:                                               ; preds = %45, %40
  br label %61

56:                                               ; preds = %31
  br label %57

57:                                               ; preds = %56, %26
  %58 = load ptr, ptr %10, align 8, !tbaa !3
  %59 = getelementptr inbounds nuw %struct._lv_svg_render_obj, ptr %58, i32 0, i32 0
  %60 = load ptr, ptr %59, align 8, !tbaa !53
  store ptr %60, ptr %10, align 8, !tbaa !3
  br label %23, !llvm.loop !232

61:                                               ; preds = %55, %23
  %62 = load ptr, ptr %5, align 8, !tbaa !3
  call void @_restore_matrix(ptr noundef %7, ptr noundef %62)
  call void @llvm.lifetime.end.p0(i64 8, ptr %10) #8
  call void @llvm.lifetime.end.p0(i64 36, ptr %9) #8
  call void @llvm.lifetime.end.p0(i64 8, ptr %8) #8
  call void @llvm.lifetime.end.p0(i64 36, ptr %7) #8
  ret void
}