; Function Attrs: nounwind uwtable
define internal void @_render_use(ptr noundef %0, ptr noundef %1, ptr nocapture readnone %2) #0 {
  %4 = alloca %struct._lv_matrix_t, align 4
  %5 = alloca %struct._lv_matrix_t, align 4
  call void @llvm.lifetime.start.p0(i64 36, ptr nonnull %4) #9
  %6 = getelementptr inbounds nuw i8, ptr %1, i64 392
  %7 = call ptr @lv_memcpy(ptr noundef nonnull %4, ptr noundef nonnull %6, i64 noundef 36) #9
  %8 = getelementptr inbounds nuw i8, ptr %0, i64 464
  call void @lv_matrix_multiply(ptr noundef nonnull %6, ptr noundef nonnull %8) #9
  call void @llvm.lifetime.start.p0(i64 36, ptr nonnull %5) #9
  call void @lv_matrix_identity(ptr noundef nonnull %5) #9
  %9 = getelementptr inbounds nuw i8, ptr %0, i64 576
  %10 = load float, ptr %9, align 8, !tbaa !233
  %11 = getelementptr inbounds nuw i8, ptr %0, i64 580
  %12 = load float, ptr %11, align 4, !tbaa !234
  call void @lv_matrix_translate(ptr noundef nonnull %5, float noundef %10, float noundef %12) #9
  %13 = getelementptr inbounds nuw i8, ptr %0, i64 504
  %.024 = load ptr, ptr %13, align 8, !tbaa !4
  %.not25 = icmp eq ptr %.024, null
  br i1 %.not25, label %.loopexit, label %.lr.ph

.lr.ph:                                           ; preds = %3
  %14 = getelementptr inbounds nuw i8, ptr %0, i64 584
  br label %15

15:                                               ; preds = %.lr.ph, %62
  %.026 = phi ptr [ %.024, %.lr.ph ], [ %.0, %62 ]
  %16 = getelementptr inbounds nuw i8, ptr %.026, i64 16
  %17 = load ptr, ptr %16, align 8, !tbaa !121
  %.not21 = icmp eq ptr %17, null
  br i1 %.not21, label %62, label %18

18:                                               ; preds = %15
  %19 = load ptr, ptr %14, align 8, !tbaa !235
  %20 = call i32 @strcmp(ptr noundef nonnull dereferenceable(1) %19, ptr noundef nonnull dereferenceable(1) %17) #10
  %21 = icmp eq i32 %20, 0
  br i1 %21, label %22, label %62

22:                                               ; preds = %18
  %23 = getelementptr inbounds nuw i8, ptr %.026, i64 544
  %24 = load ptr, ptr %23, align 8, !tbaa !154
  %.not22 = icmp eq ptr %24, null
  br i1 %.not22, label %.loopexit, label %25

25:                                               ; preds = %22
  %26 = getelementptr inbounds nuw i8, ptr %1, i64 8
  %27 = getelementptr inbounds nuw i8, ptr %.026, i64 24
  %28 = call ptr @lv_memcpy(ptr noundef nonnull %26, ptr noundef nonnull %27, i64 noundef 248) #9
  %29 = getelementptr inbounds nuw i8, ptr %.026, i64 272
  %30 = load i32, ptr %29, align 8, !tbaa !140
  %31 = getelementptr inbounds nuw i8, ptr %1, i64 256
  store i32 %30, ptr %31, align 8, !tbaa !140
  %32 = getelementptr inbounds nuw i8, ptr %1, i64 260
  %33 = getelementptr inbounds nuw i8, ptr %.026, i64 276
  %34 = load i32, ptr %33, align 4
  store i32 %34, ptr %32, align 4
  %35 = getelementptr inbounds nuw i8, ptr %.026, i64 280
  %36 = load i8, ptr %35, align 8, !tbaa !141
  %37 = getelementptr inbounds nuw i8, ptr %1, i64 264
  store i8 %36, ptr %37, align 8, !tbaa !141
  %38 = getelementptr inbounds nuw i8, ptr %.026, i64 284
  %39 = load float, ptr %38, align 4, !tbaa !142
  %40 = getelementptr inbounds nuw i8, ptr %1, i64 268
  store float %39, ptr %40, align 4, !tbaa !142
  %41 = getelementptr inbounds nuw i8, ptr %.026, i64 312
  %42 = load i32, ptr %41, align 8, !tbaa !143
  %43 = getelementptr inbounds nuw i8, ptr %1, i64 296
  store i32 %42, ptr %43, align 8, !tbaa !143
  %44 = getelementptr inbounds nuw i8, ptr %.026, i64 316
  %45 = load i32, ptr %44, align 4, !tbaa !144
  %46 = getelementptr inbounds nuw i8, ptr %1, i64 300
  store i32 %45, ptr %46, align 4, !tbaa !144
  %47 = getelementptr inbounds nuw i8, ptr %.026, i64 320
  %48 = load i16, ptr %47, align 8, !tbaa !145
  %49 = getelementptr inbounds nuw i8, ptr %1, i64 304
  store i16 %48, ptr %49, align 8, !tbaa !145
  %50 = getelementptr inbounds nuw i8, ptr %1, i64 272
  %51 = getelementptr inbounds nuw i8, ptr %.026, i64 288
  call void @lv_array_copy(ptr noundef nonnull %50, ptr noundef nonnull %51) #9
  %52 = getelementptr inbounds nuw i8, ptr %1, i64 308
  %53 = getelementptr inbounds nuw i8, ptr %.026, i64 324
  %54 = call ptr @lv_memcpy(ptr noundef nonnull %52, ptr noundef nonnull %53, i64 noundef 48) #9
  %55 = getelementptr inbounds nuw i8, ptr %1, i64 356
  %56 = getelementptr inbounds nuw i8, ptr %.026, i64 372
  %57 = call ptr @lv_memcpy(ptr noundef nonnull %55, ptr noundef nonnull %56, i64 noundef 36) #9
  %58 = getelementptr inbounds nuw i8, ptr %.026, i64 444
  %59 = load i32, ptr %58, align 4, !tbaa !47
  %60 = getelementptr inbounds nuw i8, ptr %1, i64 428
  store i32 %59, ptr %60, align 4, !tbaa !47
  call fastcc void @_special_render(ptr noundef nonnull %0, ptr noundef %1)
  %61 = load ptr, ptr %23, align 8, !tbaa !154
  call void %61(ptr noundef nonnull %.026, ptr noundef %1, ptr noundef nonnull %5) #9
  br label %.loopexit

62:                                               ; preds = %18, %15
  %.0 = load ptr, ptr %.026, align 8, !tbaa !4
  %.not = icmp eq ptr %.0, null
  br i1 %.not, label %.loopexit, label %15, !llvm.loop !236

.loopexit:                                        ; preds = %62, %3, %22, %25
  %63 = call ptr @lv_memcpy(ptr noundef nonnull %6, ptr noundef nonnull %4, i64 noundef 36) #9
  call void @llvm.lifetime.end.p0(i64 36, ptr nonnull %5) #9
  call void @llvm.lifetime.end.p0(i64 36, ptr nonnull %4) #9
  ret void
}